target datalayout = "e-m:e-p270:32:32-p271:32:32-p272:64:64-i64:64-i128:128-f80:128-n8:16:32:64-S128"
target triple = "x86_64-pc-linux-gnu"

%struct.AVPacketSideData = type { ptr, i64, i32 }

; Function Attrs: nounwind uwtable
define internal ptr @packet_side_data_add(ptr noundef %0, ptr noundef %1, i32 noundef %2, ptr noundef %3, i64 noundef %4) #0 {
  %6 = alloca ptr, align 8
  %7 = alloca ptr, align 8
  %8 = alloca ptr, align 8
  %9 = alloca i32, align 4
  %10 = alloca ptr, align 8
  %11 = alloca i64, align 8
  %12 = alloca ptr, align 8
  %13 = alloca ptr, align 8
  %14 = alloca i32, align 4
  %15 = alloca i32, align 4
  %16 = alloca i32, align 4
  store ptr %0, ptr %7, align 8, !tbaa !91
  store ptr %1, ptr %8, align 8, !tbaa !93
  store i32 %2, ptr %9, align 4, !tbaa !28
  store ptr %3, ptr %10, align 8, !tbaa !73
  store i64 %4, ptr %11, align 8, !tbaa !43
  call void @llvm.lifetime.start.p0(i64 8, ptr %12) #9
  %17 = load ptr, ptr %7, align 8, !tbaa !91
  %18 = load ptr, ptr %17, align 8, !tbaa !47
  store ptr %18, ptr %12, align 8, !tbaa !47
  call void @llvm.lifetime.start.p0(i64 8, ptr %13) #9
  call void @llvm.lifetime.start.p0(i64 4, ptr %14) #9
  %19 = load ptr, ptr %8, align 8, !tbaa !93
  %20 = load i32, ptr %19, align 4, !tbaa !28
  store i32 %20, ptr %14, align 4, !tbaa !28
  call void @llvm.lifetime.start.p0(i64 4, ptr %15) #9
  store i32 0, ptr %15, align 4, !tbaa !28
  br label %21

21:                                               ; preds = %59, %5
  %22 = load i32, ptr %15, align 4, !tbaa !28
  %23 = load i32, ptr %14, align 4, !tbaa !28
  %24 = icmp slt i32 %22, %23
  br i1 %24, label %26, label %25

25:                                               ; preds = %21
  store i32 2, ptr %16, align 4
  br label %62

26:                                               ; preds = %21
  %27 = load ptr, ptr %12, align 8, !tbaa !47
  %28 = load i32, ptr %15, align 4, !tbaa !28
  %29 = sext i32 %28 to i64
  %30 = getelementptr inbounds %struct.AVPacketSideData, ptr %27, i64 %29
  %31 = getelementptr inbounds nuw %struct.AVPacketSideData, ptr %30, i32 0, i32 2
  %32 = load i32, ptr %31, align 8, !tbaa !48
  %33 = load i32, ptr %9, align 4, !tbaa !28
  %34 = icmp ne i32 %32, %33
  br i1 %34, label %35, label %36

35:                                               ; preds = %26
  br label %59

36:                                               ; preds = %26
  %37 = load ptr, ptr %12, align 8, !tbaa !47
  %38 = load i32, ptr %15, align 4, !tbaa !28
  %39 = sext i32 %38 to i64
  %40 = getelementptr inbounds %struct.AVPacketSideData, ptr %37, i64 %39
  %41 = getelementptr inbounds nuw %struct.AVPacketSideData, ptr %40, i32 0, i32 0
  %42 = load ptr, ptr %41, align 8, !tbaa !50
  call void @av_free(ptr noundef %42)
  %43 = load ptr, ptr %10, align 8, !tbaa !73
  %44 = load ptr, ptr %12, align 8, !tbaa !47
  %45 = load i32, ptr %15, align 4, !tbaa !28
  %46 = sext i32 %45 to i64
  %47 = getelementptr inbounds %struct.AVPacketSideData, ptr %44, i64 %46
  %48 = getelementptr inbounds nuw %struct.AVPacketSideData, ptr %47, i32 0, i32 0
  store ptr %43, ptr %48, align 8, !tbaa !50
  %49 = load i64, ptr %11, align 8, !tbaa !43
  %50 = load ptr, ptr %12, align 8, !tbaa !47
  %51 = load i32, ptr %15, align 4, !tbaa !28
  %52 = sext i32 %51 to i64
  %53 = getelementptr inbounds %struct.AVPacketSideData, ptr %50, i64 %52
  %54 = getelementptr inbounds nuw %struct.AVPacketSideData, ptr %53, i32 0, i32 1
  store i64 %49, ptr %54, align 8, !tbaa !51
  %55 = load ptr, ptr %12, align 8, !tbaa !47
  %56 = load i32, ptr %15, align 4, !tbaa !28
  %57 = sext i32 %56 to i64
  %58 = getelementptr inbounds %struct.AVPacketSideData, ptr %55, i64 %57
  store ptr %58, ptr %6, align 8
  store i32 1, ptr %16, align 4
  br label %62

59:                                               ; preds = %35
  %60 = load i32, ptr %15, align 4, !tbaa !28
  %61 = add nsw i32 %60, 1
  store i32 %61, ptr %15, align 4, !tbaa !28
  br label %21, !llvm.loop !95

62:                                               ; preds = %36, %25
  call void @llvm.lifetime.end.p0(i64 4, ptr %15) #9
  %63 = load i32, ptr %16, align 4
  switch i32 %63, label %105 [
    i32 2, label %64
  ]

64:                                               ; preds = %62
  %65 = load i32, ptr %14, align 4, !tbaa !28
  %66 = icmp eq i32 %65, 2147483647
  br i1 %66, label %67, label %68

67:                                               ; preds = %64
  store ptr null, ptr %6, align 8
  store i32 1, ptr %16, align 4
  br label %105

68:                                               ; preds = %64
  %69 = load ptr, ptr %12, align 8, !tbaa !47
  %70 = load i32, ptr %14, align 4, !tbaa !28
  %71 = add nsw i32 %70, 1
  %72 = sext i32 %71 to i64
  %73 = call ptr @av_realloc_array(ptr noundef %69, i64 noundef %72, i64 noundef 24)
  store ptr %73, ptr %13, align 8, !tbaa !47
  %74 = load ptr, ptr %13, align 8, !tbaa !47
  %75 = icmp ne ptr %74, null
  br i1 %75, label %77, label %76

76:                                               ; preds = %68
  store ptr null, ptr %6, align 8
  store i32 1, ptr %16, align 4
  br label %105

77:                                               ; preds = %68
  %78 = load ptr, ptr %13, align 8, !tbaa !47
  store ptr %78, ptr %12, align 8, !tbaa !47
  %79 = load ptr, ptr %7, align 8, !tbaa !91
  store ptr %78, ptr %79, align 8, !tbaa !47
  %80 = load i32, ptr %9, align 4, !tbaa !28
  %81 = load ptr, ptr %12, align 8, !tbaa !47
  %82 = load i32, ptr %14, align 4, !tbaa !28
  %83 = sext i32 %82 to i64
  %84 = getelementptr inbounds %struct.AVPacketSideData, ptr %81, i64 %83
  %85 = getelementptr inbounds nuw %struct.AVPacketSideData, ptr %84, i32 0, i32 2
  store i32 %80, ptr %85, align 8, !tbaa !48
  %86 = load ptr, ptr %10, align 8, !tbaa !73
  %87 = load ptr, ptr %12, align 8, !tbaa !47
  %88 = load i32, ptr %14, align 4, !tbaa !28
  %89 = sext i32 %88 to i64
  %90 = getelementptr inbounds %struct.AVPacketSideData, ptr %87, i64 %89
  %91 = getelementptr inbounds nuw %struct.AVPacketSideData, ptr %90, i32 0, i32 0
  store ptr %86, ptr %91, align 8, !tbaa !50
  %92 = load i64, ptr %11, align 8, !tbaa !43
  %93 = load ptr, ptr %12, align 8, !tbaa !47
  %94 = load i32, ptr %14, align 4, !tbaa !28
  %95 = sext i32 %94 to i64
  %96 = getelementptr inbounds %struct.AVPacketSideData, ptr %93, i64 %95
  %97 = getelementptr inbounds nuw %struct.AVPacketSideData, ptr %96, i32 0, i32 1
  store i64 %92, ptr %97, align 8, !tbaa !51
  %98 = load i32, ptr %14, align 4, !tbaa !28
  %99 = add nsw i32 %98, 1
  %100 = load ptr, ptr %8, align 8, !tbaa !93
  store i32 %99, ptr %100, align 4, !tbaa !28
  %101 = load ptr, ptr %12, align 8, !tbaa !47
  %102 = load i32, ptr %14, align 4, !tbaa !28
  %103 = sext i32 %102 to i64
  %104 = getelementptr inbounds %struct.AVPacketSideData, ptr %101, i64 %103
  store ptr %104, ptr %6, align 8
  store i32 1, ptr %16, align 4
  br label %105

105:                                              ; preds = %77, %76, %67, %62
  call void @llvm.lifetime.end.p0(i64 4, ptr %14) #9
  call void @llvm.lifetime.end.p0(i64 8, ptr %13) #9
  call void @llvm.lifetime.end.p0(i64 8, ptr %12) #9
  %106 = load ptr, ptr %6, align 8
  ret ptr %106
}

; Function Attrs: nounwind uwtable
define ptr @av_packet_side_data_add(ptr noundef %0, ptr noundef %1, i32 noundef %2, ptr noundef %3, i64 noundef %4, i32 noundef %5) #0 {
  %7 = alloca ptr, align 8
  %8 = alloca ptr, align 8
  %9 = alloca i32, align 4
  %10 = alloca ptr, align 8
  %11 = alloca i64, align 8
  %12 = alloca i32, align 4
  store ptr %0, ptr %7, align 8, !tbaa !91
  store ptr %1, ptr %8, align 8, !tbaa !93
  store i32 %2, ptr %9, align 4, !tbaa !28
  store ptr %3, ptr %10, align 8, !tbaa !73
  store i64 %4, ptr %11, align 8, !tbaa !43
  store i32 %5, ptr %12, align 4, !tbaa !28
  %13 = load ptr, ptr %7, align 8, !tbaa !91
  %14 = load ptr, ptr %8, align 8, !tbaa !93
  %15 = load i32, ptr %9, align 4, !tbaa !28
  %16 = load ptr, ptr %10, align 8, !tbaa !73
  %17 = load i64, ptr %11, align 8, !tbaa !43
  %18 = call ptr @packet_side_data_add(ptr noundef %13, ptr noundef %14, i32 noundef %15, ptr noundef %16, i64 noundef %17)
  ret ptr %18
}