; Function Attrs: nounwind uwtable
define ptr @av_packet_side_data_add(ptr noundef captures(none) %0, ptr noundef captures(none) %1, i32 noundef %2, ptr noundef %3, i64 noundef %4, i32 noundef %5) local_unnamed_addr #3 {
  %7 = load ptr, ptr %0, align 8, !tbaa !53
  %8 = load i32, ptr %1, align 4, !tbaa !52
  %.not4245.i = icmp sgt i32 %8, 0
  br i1 %.not4245.i, label %.lr.ph.preheader.i, label %._crit_edge.thread.i

.lr.ph.preheader.i:                               ; preds = %6
  %wide.trip.count.i = zext nneg i32 %8 to i64
  br label %.lr.ph.i

9:                                                ; preds = %.lr.ph.i
  %indvars.iv.next.i = add nuw nsw i64 %indvars.iv.i, 1
  %exitcond.not.i = icmp eq i64 %indvars.iv.next.i, %wide.trip.count.i
  br i1 %exitcond.not.i, label %._crit_edge.i, label %.lr.ph.i, !llvm.loop !68

.lr.ph.i:                                         ; preds = %9, %.lr.ph.preheader.i
  %indvars.iv.i = phi i64 [ 0, %.lr.ph.preheader.i ], [ %indvars.iv.next.i, %9 ]
  %10 = getelementptr inbounds nuw %struct.AVPacketSideData, ptr %7, i64 %indvars.iv.i
  %11 = getelementptr inbounds nuw i8, ptr %10, i64 16
  %12 = load i32, ptr %11, align 8, !tbaa !35
  %.not.i = icmp eq i32 %12, %2
  br i1 %.not.i, label %.thread.i, label %9

.thread.i:                                        ; preds = %.lr.ph.i
  %13 = load ptr, ptr %10, align 8, !tbaa !37
  tail call void @av_free(ptr noundef %13) #16
  store ptr %3, ptr %10, align 8, !tbaa !37
  %14 = getelementptr inbounds nuw i8, ptr %10, i64 8
  store i64 %4, ptr %14, align 8, !tbaa !38
  br label %packet_side_data_add.exit

._crit_edge.i:                                    ; preds = %9
  %15 = icmp eq i32 %8, 2147483647
  br i1 %15, label %packet_side_data_add.exit, label %._crit_edge.thread.i

._crit_edge.thread.i:                             ; preds = %._crit_edge.i, %6
  %16 = add nsw i32 %8, 1
  %17 = sext i32 %16 to i64
  %18 = tail call ptr @av_realloc_array(ptr noundef %7, i64 noundef %17, i64 noundef 24) #16
  %.not43.i = icmp eq ptr %18, null
  br i1 %.not43.i, label %packet_side_data_add.exit, label %19

19:                                               ; preds = %._crit_edge.thread.i
  store ptr %18, ptr %0, align 8, !tbaa !53
  %20 = sext i32 %8 to i64
  %21 = getelementptr inbounds %struct.AVPacketSideData, ptr %18, i64 %20
  %22 = getelementptr inbounds nuw i8, ptr %21, i64 16
  store i32 %2, ptr %22, align 8, !tbaa !35
  store ptr %3, ptr %21, align 8, !tbaa !37
  %23 = getelementptr inbounds nuw i8, ptr %21, i64 8
  store i64 %4, ptr %23, align 8, !tbaa !38
  store i32 %16, ptr %1, align 4, !tbaa !52
  br label %packet_side_data_add.exit

packet_side_data_add.exit:                        ; preds = %.thread.i, %._crit_edge.i, %._crit_edge.thread.i, %19
  %.1.i = phi ptr [ %21, %19 ], [ null, %._crit_edge.i ], [ null, %._crit_edge.thread.i ], [ %10, %.thread.i ]
  ret ptr %.1.i
}